target datalayout = "e-m:e-p270:32:32-p271:32:32-p272:64:64-i64:64-i128:128-f80:128-n8:16:32:64-S128"
target triple = "x86_64-unknown-linux-gnu"

%"class.llvh::detail::IEEEFloat" = type <{ ptr, %"union.llvh::detail::IEEEFloat::Significand", i16, i8, [5 x i8] }>
%"union.llvh::detail::IEEEFloat::Significand" = type { i64 }

; Function Attrs: mustprogress nounwind uwtable
define hidden noundef i32 @_ZN4llvh6detail9IEEEFloat13addOrSubtractERKS1_NS_11APFloatBase12roundingModeEb(ptr noundef nonnull align 8 dereferenceable(24) %this, ptr noundef nonnull align 8 dereferenceable(24) %rhs, i32 noundef %rounding_mode, i1 noundef zeroext %subtract) #1 align 2 {
entry:
  %this.addr = alloca ptr, align 8
  %rhs.addr = alloca ptr, align 8
  %rounding_mode.addr = alloca i32, align 4
  %subtract.addr = alloca i8, align 1
  %fs = alloca i32, align 4
  %lost_fraction = alloca i32, align 4
  store ptr %this, ptr %this.addr, align 8
  store ptr %rhs, ptr %rhs.addr, align 8
  store i32 %rounding_mode, ptr %rounding_mode.addr, align 4
  %frombool = zext i1 %subtract to i8
  store i8 %frombool, ptr %subtract.addr, align 1
  %this1 = load ptr, ptr %this.addr, align 8
  %0 = load ptr, ptr %rhs.addr, align 8
  %1 = load i8, ptr %subtract.addr, align 1
  %tobool = trunc i8 %1 to i1
  %call = call noundef i32 @_ZN4llvh6detail9IEEEFloat21addOrSubtractSpecialsERKS1_b(ptr noundef nonnull align 8 dereferenceable(24) %this1, ptr noundef nonnull align 8 dereferenceable(24) %0, i1 noundef zeroext %tobool)
  store i32 %call, ptr %fs, align 4
  %2 = load i32, ptr %fs, align 4
  %cmp = icmp eq i32 %2, 2
  br i1 %cmp, label %if.then, label %if.end

if.then:                                          ; preds = %entry
  %3 = load ptr, ptr %rhs.addr, align 8
  %4 = load i8, ptr %subtract.addr, align 1
  %tobool2 = trunc i8 %4 to i1
  %call3 = call noundef i32 @_ZN4llvh6detail9IEEEFloat24addOrSubtractSignificandERKS1_b(ptr noundef nonnull align 8 dereferenceable(24) %this1, ptr noundef nonnull align 8 dereferenceable(24) %3, i1 noundef zeroext %tobool2)
  store i32 %call3, ptr %lost_fraction, align 4
  %5 = load i32, ptr %rounding_mode.addr, align 4
  %6 = load i32, ptr %lost_fraction, align 4
  %call4 = call noundef i32 @_ZN4llvh6detail9IEEEFloat9normalizeENS_11APFloatBase12roundingModeENS_12lostFractionE(ptr noundef nonnull align 8 dereferenceable(24) %this1, i32 noundef %5, i32 noundef %6)
  store i32 %call4, ptr %fs, align 4
  br label %if.end

if.end:                                           ; preds = %if.then, %entry
  %category = getelementptr inbounds %"class.llvh::detail::IEEEFloat", ptr %this1, i32 0, i32 3
  %bf.load = load i8, ptr %category, align 2
  %bf.clear = and i8 %bf.load, 7
  %bf.cast = zext i8 %bf.clear to i32
  %cmp5 = icmp eq i32 %bf.cast, 3
  br i1 %cmp5, label %if.then6, label %if.end31

if.then6:                                         ; preds = %if.end
  %7 = load ptr, ptr %rhs.addr, align 8
  %category7 = getelementptr inbounds %"class.llvh::detail::IEEEFloat", ptr %7, i32 0, i32 3
  %bf.load8 = load i8, ptr %category7, align 2
  %bf.clear9 = and i8 %bf.load8, 7
  %bf.cast10 = zext i8 %bf.clear9 to i32
  %cmp11 = icmp ne i32 %bf.cast10, 3
  br i1 %cmp11, label %if.then24, label %lor.lhs.false

lor.lhs.false:                                    ; preds = %if.then6
  %sign = getelementptr inbounds %"class.llvh::detail::IEEEFloat", ptr %this1, i32 0, i32 3
  %bf.load12 = load i8, ptr %sign, align 2
  %bf.lshr = lshr i8 %bf.load12, 3
  %bf.clear13 = and i8 %bf.lshr, 1
  %bf.cast14 = zext i8 %bf.clear13 to i32
  %8 = load ptr, ptr %rhs.addr, align 8
  %sign15 = getelementptr inbounds %"class.llvh::detail::IEEEFloat", ptr %8, i32 0, i32 3
  %bf.load16 = load i8, ptr %sign15, align 2
  %bf.lshr17 = lshr i8 %bf.load16, 3
  %bf.clear18 = and i8 %bf.lshr17, 1
  %bf.cast19 = zext i8 %bf.clear18 to i32
  %cmp20 = icmp eq i32 %bf.cast14, %bf.cast19
  %conv = zext i1 %cmp20 to i32
  %9 = load i8, ptr %subtract.addr, align 1
  %tobool21 = trunc i8 %9 to i1
  %conv22 = zext i1 %tobool21 to i32
  %cmp23 = icmp eq i32 %conv, %conv22
  br i1 %cmp23, label %if.then24, label %if.end30

if.then24:                                        ; preds = %lor.lhs.false, %if.then6
  %10 = load i32, ptr %rounding_mode.addr, align 4
  %cmp25 = icmp eq i32 %10, 2
  %conv26 = zext i1 %cmp25 to i32
  %sign27 = getelementptr inbounds %"class.llvh::detail::IEEEFloat", ptr %this1, i32 0, i32 3
  %11 = trunc i32 %conv26 to i8
  %bf.load28 = load i8, ptr %sign27, align 2
  %bf.value = and i8 %11, 1
  %bf.shl = shl i8 %bf.value, 3
  %bf.clear29 = and i8 %bf.load28, -9
  %bf.set = or i8 %bf.clear29, %bf.shl
  store i8 %bf.set, ptr %sign27, align 2
  br label %if.end30

if.end30:                                         ; preds = %if.then24, %lor.lhs.false
  br label %if.end31

if.end31:                                         ; preds = %if.end30, %if.end
  %12 = load i32, ptr %fs, align 4
  ret i32 %12
}

; Function Attrs: mustprogress nounwind uwtable
define hidden noundef i32 @_ZN4llvh6detail9IEEEFloat8subtractERKS1_NS_11APFloatBase12roundingModeE(ptr noundef nonnull align 8 dereferenceable(24) %this, ptr noundef nonnull align 8 dereferenceable(24) %rhs, i32 noundef %rounding_mode) #1 align 2 {
entry:
  %this.addr = alloca ptr, align 8
  %rhs.addr = alloca ptr, align 8
  %rounding_mode.addr = alloca i32, align 4
  store ptr %this, ptr %this.addr, align 8
  store ptr %rhs, ptr %rhs.addr, align 8
  store i32 %rounding_mode, ptr %rounding_mode.addr, align 4
  %this1 = load ptr, ptr %this.addr, align 8
  %0 = load ptr, ptr %rhs.addr, align 8
  %1 = load i32, ptr %rounding_mode.addr, align 4
  %call = call noundef i32 @_ZN4llvh6detail9IEEEFloat13addOrSubtractERKS1_NS_11APFloatBase12roundingModeEb(ptr noundef nonnull align 8 dereferenceable(24) %this1, ptr noundef nonnull align 8 dereferenceable(24) %0, i32 noundef %1, i1 noundef zeroext true)
  ret i32 %call
}