; Function Attrs: mustprogress nounwind uwtable
define hidden noundef range(i32 0, 25) i32 @_ZN4llvh6detail9IEEEFloat8subtractERKS1_NS_11APFloatBase12roundingModeE(ptr noundef nonnull align 8 dereferenceable(24) %this, ptr noundef nonnull align 8 dereferenceable(24) %rhs, i32 noundef %rounding_mode) local_unnamed_addr #2 align 2 {
entry:
  %call.i = tail call noundef i32 @_ZN4llvh6detail9IEEEFloat21addOrSubtractSpecialsERKS1_b(ptr noundef nonnull align 8 dereferenceable(24) %this, ptr noundef nonnull align 8 dereferenceable(24) %rhs, i1 noundef zeroext true)
  %cmp.i = icmp eq i32 %call.i, 2
  br i1 %cmp.i, label %if.then.i, label %if.end.i

if.then.i:                                        ; preds = %entry
  %call3.i = tail call noundef i32 @_ZN4llvh6detail9IEEEFloat24addOrSubtractSignificandERKS1_b(ptr noundef nonnull align 8 dereferenceable(24) %this, ptr noundef nonnull align 8 dereferenceable(24) %rhs, i1 noundef zeroext true)
  %call4.i = tail call noundef i32 @_ZN4llvh6detail9IEEEFloat9normalizeENS_11APFloatBase12roundingModeENS_12lostFractionE(ptr noundef nonnull align 8 dereferenceable(24) %this, i32 noundef %rounding_mode, i32 noundef %call3.i)
  br label %if.end.i

if.end.i:                                         ; preds = %if.then.i, %entry
  %fs.0.i = phi i32 [ %call4.i, %if.then.i ], [ %call.i, %entry ]
  %category.i = getelementptr inbounds nuw i8, ptr %this, i64 18
  %bf.load.i = load i8, ptr %category.i, align 2
  %bf.clear.i = and i8 %bf.load.i, 7
  %cmp5.i = icmp eq i8 %bf.clear.i, 3
  br i1 %cmp5.i, label %if.then6.i, label %_ZN4llvh6detail9IEEEFloat13addOrSubtractERKS1_NS_11APFloatBase12roundingModeEb.exit

if.then6.i:                                       ; preds = %if.end.i
  %category7.i = getelementptr inbounds nuw i8, ptr %rhs, i64 18
  %bf.load8.i = load i8, ptr %category7.i, align 2
  %bf.clear9.i = and i8 %bf.load8.i, 7
  %cmp11.not.i = icmp eq i8 %bf.clear9.i, 3
  br i1 %cmp11.not.i, label %lor.lhs.false.i, label %if.then24.i

lor.lhs.false.i:                                  ; preds = %if.then6.i
  %bf.lshr8.i = xor i8 %bf.load8.i, %bf.load.i
  %0 = and i8 %bf.lshr8.i, 8
  %.not = icmp eq i8 %0, 0
  br i1 %.not, label %if.then24.i, label %_ZN4llvh6detail9IEEEFloat13addOrSubtractERKS1_NS_11APFloatBase12roundingModeEb.exit

if.then24.i:                                      ; preds = %lor.lhs.false.i, %if.then6.i
  %cmp25.i = icmp eq i32 %rounding_mode, 2
  %bf.shl.i = select i1 %cmp25.i, i8 8, i8 0
  %bf.clear29.i = and i8 %bf.load.i, -13
  %bf.set.i = or disjoint i8 %bf.clear29.i, %bf.shl.i
  store i8 %bf.set.i, ptr %category.i, align 2
  br label %_ZN4llvh6detail9IEEEFloat13addOrSubtractERKS1_NS_11APFloatBase12roundingModeEb.exit

_ZN4llvh6detail9IEEEFloat13addOrSubtractERKS1_NS_11APFloatBase12roundingModeEb.exit: ; preds = %if.end.i, %lor.lhs.false.i, %if.then24.i
  ret i32 %fs.0.i
}